(dp0
S'test'
p1
ccopy_reg
_reconstructor
p2
(cpr2_guide.msg._Spot
Spot
p3
c__builtin__
object
p4
Ntp5
Rp6
(lp7
g2
(cstd_msgs.msg._Header
Header
p8
g4
Ntp9
Rp10
(lp11
I0
ag2
(cgenpy.rostime
Time
p12
g4
Ntp13
Rp14
(lp15
I0
aI0
abaS'map'
p16
abag1
a(lp17
S'test'
p18
aag2
(cgeometry_msgs.msg._Pose
Pose
p19
g4
Ntp20
Rp21
(lp22
g2
(cgeometry_msgs.msg._Point
Point
p23
g4
Ntp24
Rp25
(lp26
F0.0
aF0.0
aF0.0
abag2
(cgeometry_msgs.msg._Quaternion
Quaternion
p27
g4
Ntp28
Rp29
(lp30
F0.0
aF0.0
aF0.0
aF0.0
abababsS'\xe3\x83\x9b\xe3\x83\xbc\xe3\x83\xa0\xe3\x83\x9d\xe3\x82\xb8\xe3\x82\xb7\xe3\x83\xa7\xe3\x83\xb3'
p31
g2
(g3
g4
Ntp32
Rp33
(lp34
g2
(g8
g4
Ntp35
Rp36
(lp37
I0
ag2
(g12
g4
Ntp38
Rp39
(lp40
I0
aI0
abaS'map'
p41
abag31
a(lp42
S'\xe3\x83\x9b\xe3\x83\xbc\xe3\x83\xa0\xe3\x83\x9d\xe3\x82\xb8\xe3\x82\xb7\xe3\x83\xa7\xe3\x83\xb3'
p43
aag2
(g19
g4
Ntp44
Rp45
(lp46
g2
(g23
g4
Ntp47
Rp48
(lp49
F6.4456430306810395
aF-5.098105228629445
aF-0.051000000000000024
abag2
(g27
g4
Ntp50
Rp51
(lp52
F-0.0
aF0.0
aF-0.3561443576397497
aF0.9344309479685323
abababs.