(dp0
S'test'
p1
ccopy_reg
_reconstructor
p2
(cpr2_guide.msg._Spot
Spot
p3
c__builtin__
object
p4
Ntp5
Rp6
(lp7
g2
(cstd_msgs.msg._Header
Header
p8
g4
Ntp9
Rp10
(lp11
I0
ag2
(cgenpy.rostime
Time
p12
g4
Ntp13
Rp14
(lp15
I0
aI0
abaS'map'
p16
abag1
a(lp17
S'test'
p18
aag2
(cgeometry_msgs.msg._Pose
Pose
p19
g4
Ntp20
Rp21
(lp22
g2
(cgeometry_msgs.msg._Point
Point
p23
g4
Ntp24
Rp25
(lp26
F0.0
aF0.0
aF0.0
abag2
(cgeometry_msgs.msg._Quaternion
Quaternion
p27
g4
Ntp28
Rp29
(lp30
F0.0
aF0.0
aF0.0
aF0.0
abababs.