(dp0
S'test'
p1
ccopy_reg
_reconstructor
p2
(cpr2_guide.msg._Spot
Spot
p3
c__builtin__
object
p4
Ntp5
Rp6
(lp7
g2
(cstd_msgs.msg._Header
Header
p8
g4
Ntp9
Rp10
(lp11
I0
ag2
(cgenpy.rostime
Time
p12
g4
Ntp13
Rp14
(lp15
I0
aI0
abaS'map'
p16
abag1
a(lp17
S'test'
p18
aag2
(cgeometry_msgs.msg._Pose
Pose
p19
g4
Ntp20
Rp21
(lp22
g2
(cgeometry_msgs.msg._Point
Point
p23
g4
Ntp24
Rp25
(lp26
F0.0
aF0.0
aF0.0
abag2
(cgeometry_msgs.msg._Quaternion
Quaternion
p27
g4
Ntp28
Rp29
(lp30
F0.0
aF0.0
aF0.0
aF0.0
abababsS''
p31
g2
(g3
g4
Ntp32
Rp33
(lp34
g2
(g8
g4
Ntp35
Rp36
(lp37
I0
ag2
(g12
g4
Ntp38
Rp39
(lp40
I0
aI0
abaS'map'
p41
abag31
a(lp42
g31
aag2
(g19
g4
Ntp43
Rp44
(lp45
g2
(g23
g4
Ntp46
Rp47
(lp48
F6.424927131294428
aF-4.6774439580169735
aF-0.05099999999999999
abag2
(g27
g4
Ntp49
Rp50
(lp51
F0.0
aF-0.0
aF0.36539890448353135
aF0.9308510302955222
abababsS'73B2'
p52
g2
(g3
g4
Ntp53
Rp54
(lp55
g2
(g8
g4
Ntp56
Rp57
(lp58
I0
ag2
(g12
g4
Ntp59
Rp60
(lp61
I0
aI0
abaS'map'
p62
abag52
a(lp63
S'73B2'
p64
aag2
(g19
g4
Ntp65
Rp66
(lp67
g2
(g23
g4
Ntp68
Rp69
(lp70
F6.424927131294429
aF-4.677443958016973
aF-0.05099999999999999
abag2
(g27
g4
Ntp71
Rp72
(lp73
F0.0
aF-0.0
aF0.36539890448353135
aF0.9308510302955222
abababsS'\xe3\x83\x9b\xe3\x83\xbc\xe3\x83\xa0\xe3\x83\x9d\xe3\x82\xb8\xe3\x82\xb7\xe3\x83\xa7\xe3\x83\xb3'
p74
g2
(g3
g4
Ntp75
Rp76
(lp77
g2
(g8
g4
Ntp78
Rp79
(lp80
I0
ag2
(g12
g4
Ntp81
Rp82
(lp83
I0
aI0
abaS'map'
p84
abag74
a(lp85
S'\xe3\x83\x9b\xe3\x83\xbc\xe3\x83\xa0\xe3\x83\x9d\xe3\x82\xb8\xe3\x82\xb7\xe3\x83\xa7\xe3\x83\xb3'
p86
aag2
(g19
g4
Ntp87
Rp88
(lp89
g2
(g23
g4
Ntp90
Rp91
(lp92
F6.4456430306810395
aF-5.098105228629445
aF-0.051000000000000024
abag2
(g27
g4
Ntp93
Rp94
(lp95
F-0.0
aF0.0
aF-0.3561443576397497
aF0.9344309479685323
abababs.